target datalayout = "e-m:e-p270:32:32-p271:32:32-p272:64:64-i64:64-i128:128-f80:128-n8:16:32:64-S128"
target triple = "x86_64-pc-linux-gnu"

%struct.AVFormatContext = type { ptr, ptr, ptr, ptr, ptr, i32, i32, ptr, i32, ptr, i32, ptr, ptr, i64, i64, i64, i32, i32, i32, i64, i64, ptr, i32, i32, ptr, i32, i32, i32, i32, ptr, i64, i32, i32, %struct.AVIOInterruptCB, i32, i32, i32, i32, i64, i32, i32, i32, i32, i32, i32, i32, i32, i32, i32, i32, i32, i64, i32, i32, i32, i32, i32, ptr, ptr, ptr, ptr, i32, ptr, ptr, ptr, ptr, i32, ptr, ptr, i64, ptr, ptr, ptr, i64 }
%struct.AVIOInterruptCB = type { ptr, ptr }
%struct.TeeSlave = type { ptr, ptr, i32, i32, ptr, ptr, i32 }

; Function Attrs: nounwind uwtable
define internal i32 @close_slave(ptr noundef %0) #0 {
  %2 = alloca i32, align 4
  %3 = alloca ptr, align 8
  %4 = alloca ptr, align 8
  %5 = alloca i32, align 4
  %6 = alloca i32, align 4
  %7 = alloca i32, align 4
  store ptr %0, ptr %3, align 8, !tbaa !72
  call void @llvm.lifetime.start.p0(i64 8, ptr %4) #8
  call void @llvm.lifetime.start.p0(i64 4, ptr %5) #8
  store i32 0, ptr %5, align 4, !tbaa !28
  %8 = load ptr, ptr %3, align 8, !tbaa !72
  %9 = getelementptr inbounds nuw %struct.TeeSlave, ptr %8, i32 0, i32 4
  call void @av_dict_free(ptr noundef %9)
  %10 = load ptr, ptr %3, align 8, !tbaa !72
  %11 = getelementptr inbounds nuw %struct.TeeSlave, ptr %10, i32 0, i32 0
  %12 = load ptr, ptr %11, align 8, !tbaa !48
  store ptr %12, ptr %4, align 8, !tbaa !4
  %13 = load ptr, ptr %4, align 8, !tbaa !4
  %14 = icmp ne ptr %13, null
  br i1 %14, label %16, label %15

15:                                               ; preds = %1
  store i32 0, ptr %2, align 4
  store i32 1, ptr %6, align 4
  br label %61

16:                                               ; preds = %1
  %17 = load ptr, ptr %3, align 8, !tbaa !72
  %18 = getelementptr inbounds nuw %struct.TeeSlave, ptr %17, i32 0, i32 6
  %19 = load i32, ptr %18, align 8, !tbaa !90
  %20 = icmp ne i32 %19, 0
  br i1 %20, label %21, label %24

21:                                               ; preds = %16
  %22 = load ptr, ptr %4, align 8, !tbaa !4
  %23 = call i32 @av_write_trailer(ptr noundef %22)
  store i32 %23, ptr %5, align 4, !tbaa !28
  br label %24

24:                                               ; preds = %21, %16
  %25 = load ptr, ptr %3, align 8, !tbaa !72
  %26 = getelementptr inbounds nuw %struct.TeeSlave, ptr %25, i32 0, i32 1
  %27 = load ptr, ptr %26, align 8, !tbaa !64
  %28 = icmp ne ptr %27, null
  br i1 %28, label %29, label %48

29:                                               ; preds = %24
  call void @llvm.lifetime.start.p0(i64 4, ptr %7) #8
  store i32 0, ptr %7, align 4, !tbaa !28
  br label %30

30:                                               ; preds = %44, %29
  %31 = load i32, ptr %7, align 4, !tbaa !28
  %32 = load ptr, ptr %4, align 8, !tbaa !4
  %33 = getelementptr inbounds nuw %struct.AVFormatContext, ptr %32, i32 0, i32 6
  %34 = load i32, ptr %33, align 4, !tbaa !47
  %35 = icmp ult i32 %31, %34
  br i1 %35, label %37, label %36

36:                                               ; preds = %30
  store i32 2, ptr %6, align 4
  call void @llvm.lifetime.end.p0(i64 4, ptr %7) #8
  br label %47

37:                                               ; preds = %30
  %38 = load ptr, ptr %3, align 8, !tbaa !72
  %39 = getelementptr inbounds nuw %struct.TeeSlave, ptr %38, i32 0, i32 1
  %40 = load ptr, ptr %39, align 8, !tbaa !64
  %41 = load i32, ptr %7, align 4, !tbaa !28
  %42 = zext i32 %41 to i64
  %43 = getelementptr inbounds nuw ptr, ptr %40, i64 %42
  call void @av_bsf_free(ptr noundef %43)
  br label %44

44:                                               ; preds = %37
  %45 = load i32, ptr %7, align 4, !tbaa !28
  %46 = add i32 %45, 1
  store i32 %46, ptr %7, align 4, !tbaa !28
  br label %30, !llvm.loop !121

47:                                               ; preds = %36
  br label %48

48:                                               ; preds = %47, %24
  %49 = load ptr, ptr %3, align 8, !tbaa !72
  %50 = getelementptr inbounds nuw %struct.TeeSlave, ptr %49, i32 0, i32 5
  call void @av_freep(ptr noundef %50)
  %51 = load ptr, ptr %3, align 8, !tbaa !72
  %52 = getelementptr inbounds nuw %struct.TeeSlave, ptr %51, i32 0, i32 1
  call void @av_freep(ptr noundef %52)
  %53 = load ptr, ptr %4, align 8, !tbaa !4
  %54 = load ptr, ptr %4, align 8, !tbaa !4
  %55 = getelementptr inbounds nuw %struct.AVFormatContext, ptr %54, i32 0, i32 4
  %56 = call i32 @ff_format_io_close(ptr noundef %53, ptr noundef %55)
  %57 = load ptr, ptr %4, align 8, !tbaa !4
  call void @avformat_free_context(ptr noundef %57)
  %58 = load ptr, ptr %3, align 8, !tbaa !72
  %59 = getelementptr inbounds nuw %struct.TeeSlave, ptr %58, i32 0, i32 0
  store ptr null, ptr %59, align 8, !tbaa !48
  %60 = load i32, ptr %5, align 4, !tbaa !28
  store i32 %60, ptr %2, align 4
  store i32 1, ptr %6, align 4
  br label %61

61:                                               ; preds = %48, %15
  call void @llvm.lifetime.end.p0(i64 4, ptr %5) #8
  call void @llvm.lifetime.end.p0(i64 8, ptr %4) #8
  %62 = load i32, ptr %2, align 4
  ret i32 %62
}