; Function Attrs: nounwind uwtable
define internal fastcc i32 @close_slave(ptr noundef %0) unnamed_addr #0 {
  %2 = getelementptr inbounds nuw i8, ptr %0, i64 24
  tail call void @av_dict_free(ptr noundef nonnull %2) #6
  %3 = load ptr, ptr %0, align 8, !tbaa !51
  %.not = icmp eq ptr %3, null
  br i1 %.not, label %22, label %4

4:                                                ; preds = %1
  %5 = getelementptr inbounds nuw i8, ptr %0, i64 40
  %6 = load i32, ptr %5, align 8, !tbaa !66
  %.not21 = icmp eq i32 %6, 0
  br i1 %.not21, label %9, label %7

7:                                                ; preds = %4
  %8 = tail call i32 @av_write_trailer(ptr noundef nonnull %3) #6
  br label %9

9:                                                ; preds = %7, %4
  %.018 = phi i32 [ %8, %7 ], [ 0, %4 ]
  %10 = getelementptr inbounds nuw i8, ptr %0, i64 8
  %11 = load ptr, ptr %10, align 8, !tbaa !67
  %.not22 = icmp eq ptr %11, null
  br i1 %.not22, label %.loopexit, label %.preheader

.preheader:                                       ; preds = %9
  %12 = getelementptr inbounds nuw i8, ptr %3, i64 44
  %13 = load i32, ptr %12, align 4, !tbaa !34
  %.not24 = icmp eq i32 %13, 0
  br i1 %.not24, label %.loopexit, label %.lr.ph

.lr.ph:                                           ; preds = %.preheader, %.lr.ph
  %indvars.iv = phi i64 [ %indvars.iv.next, %.lr.ph ], [ 0, %.preheader ]
  %14 = load ptr, ptr %10, align 8, !tbaa !67
  %15 = getelementptr inbounds nuw ptr, ptr %14, i64 %indvars.iv
  tail call void @av_bsf_free(ptr noundef %15) #6
  %indvars.iv.next = add nuw nsw i64 %indvars.iv, 1
  %16 = load i32, ptr %12, align 4, !tbaa !34
  %17 = zext i32 %16 to i64
  %18 = icmp samesign ult i64 %indvars.iv.next, %17
  br i1 %18, label %.lr.ph, label %.loopexit, !llvm.loop !112

.loopexit:                                        ; preds = %.lr.ph, %.preheader, %9
  %19 = getelementptr inbounds nuw i8, ptr %0, i64 32
  tail call void @av_freep(ptr noundef nonnull %19) #6
  tail call void @av_freep(ptr noundef nonnull %10) #6
  %20 = getelementptr inbounds nuw i8, ptr %3, i64 32
  %21 = tail call i32 @ff_format_io_close(ptr noundef nonnull %3, ptr noundef nonnull %20) #6
  tail call void @avformat_free_context(ptr noundef nonnull %3) #6
  store ptr null, ptr %0, align 8, !tbaa !51
  br label %22

22:                                               ; preds = %1, %.loopexit
  %.019 = phi i32 [ %.018, %.loopexit ], [ 0, %1 ]
  ret i32 %.019
}